; Function Attrs: mustprogress nofree norecurse nosync nounwind sspstrong willreturn memory(read, inaccessiblemem: none) uwtable
define internal i64 @builtin_inline_class_172(ptr readnone captures(none) %0, i64 noundef %1) #0 {
  %3 = inttoptr i64 %1 to ptr
  %4 = load i64, ptr %3, align 8, !tbaa !7
  %5 = and i64 %4, 8192
  %.not.i.i = icmp eq i64 %5, 0
  br i1 %.not.i.i, label %rb_array_len.exit.i, label %rb_array_len.exit.thread.i

rb_array_len.exit.i:                              ; preds = %2
  %6 = getelementptr inbounds nuw i8, ptr %3, i64 16
  %7 = load i64, ptr %6, align 8, !tbaa !12
  %8 = icmp eq i64 %7, 0
  br i1 %8, label %ary_last.exit, label %14

rb_array_len.exit.thread.i:                       ; preds = %2
  %9 = lshr i64 %4, 15
  %10 = and i64 %9, 127
  %11 = icmp eq i64 %10, 0
  br i1 %11, label %ary_last.exit, label %12

12:                                               ; preds = %rb_array_len.exit.thread.i
  %13 = getelementptr inbounds nuw i8, ptr %3, i64 16
  br label %RARRAY_AREF.exit.i

14:                                               ; preds = %rb_array_len.exit.i
  %15 = getelementptr inbounds nuw i8, ptr %3, i64 32
  %16 = load ptr, ptr %15, align 8, !tbaa !12
  br label %RARRAY_AREF.exit.i

RARRAY_AREF.exit.i:                               ; preds = %14, %12
  %.in.i = phi i64 [ %10, %12 ], [ %7, %14 ]
  %.0.i.i.i = phi ptr [ %13, %12 ], [ %16, %14 ]
  %17 = getelementptr i64, ptr %.0.i.i.i, i64 %.in.i
  %18 = getelementptr i8, ptr %17, i64 -8
  %19 = load i64, ptr %18, align 8, !tbaa !13
  br label %ary_last.exit

ary_last.exit:                                    ; preds = %rb_array_len.exit.i, %rb_array_len.exit.thread.i, %RARRAY_AREF.exit.i
  %20 = phi i64 [ %19, %RARRAY_AREF.exit.i ], [ 4, %rb_array_len.exit.i ], [ 4, %rb_array_len.exit.thread.i ]
  ret i64 %20
}